target datalayout = "e-m:e-p270:32:32-p271:32:32-p272:64:64-i64:64-i128:128-f80:128-n8:16:32:64-S128"
target triple = "x86_64-pc-linux-gnu"

%"class.clang::ento::SVal" = type <{ ptr, i8, [7 x i8] }>
%"class.llvm::FoldingSetBase::Node" = type { ptr }
%"class.(anonymous namespace)::VarBindingsCollector" = type { %"class.clang::ento::StoreManager::BindingsHandler", ptr, ptr }
%"class.clang::ento::StoreManager::BindingsHandler" = type { ptr }
%"class.clang::ento::MemRegion" = type { ptr, %"class.llvm::FoldingSetBase::Node", i32, [4 x i8], %"class.std::optional.642" }
%"class.std::optional.642" = type { %"struct.std::_Optional_base.643" }
%"struct.std::_Optional_base.643" = type { %"struct.std::_Optional_payload.645" }
%"struct.std::_Optional_payload.645" = type { %"struct.std::_Optional_payload_base.base.647", [7 x i8] }
%"struct.std::_Optional_payload_base.base.647" = type <{ %"union.std::_Optional_payload_base<clang::ento::RegionOffset>::_Storage", i8 }>
%"union.std::_Optional_payload_base<clang::ento::RegionOffset>::_Storage" = type { %"class.clang::ento::RegionOffset" }
%"class.clang::ento::RegionOffset" = type { ptr, i64 }

; Function Attrs: mustprogress nounwind uwtable
define linkonce_odr hidden noundef i32 @_ZNK5clang4ento9MemRegion7getKindEv(ptr noundef nonnull align 8 dereferenceable(48) %0) #0 comdat align 2 {
  %2 = alloca ptr, align 8
  store ptr %0, ptr %2, align 8
  %3 = load ptr, ptr %2, align 8
  %4 = getelementptr inbounds nuw %"class.clang::ento::MemRegion", ptr %3, i32 0, i32 2
  %5 = load i32, ptr %4, align 8
  ret i32 %5
}

; Function Attrs: mustprogress nounwind uwtable
define linkonce_odr hidden noundef zeroext i1 @_ZN5clang4ento17NonParamVarRegion7classofEPKNS0_9MemRegionE(ptr noundef %0) #0 comdat align 2 {
  %2 = alloca ptr, align 8
  store ptr %0, ptr %2, align 8
  %3 = load ptr, ptr %2, align 8
  %4 = call noundef i32 @_ZNK5clang4ento9MemRegion7getKindEv(ptr noundef nonnull align 8 dereferenceable(48) %3)
  %5 = icmp eq i32 %4, 22
  ret i1 %5
}

; Function Attrs: mustprogress nounwind uwtable
define linkonce_odr hidden noundef zeroext i1 @_ZN4llvm8isa_implIN5clang4ento17NonParamVarRegionENS2_9MemRegionEvE4doitERKS4_(ptr noundef nonnull align 8 dereferenceable(48) %0) #0 comdat align 2 {
  %2 = alloca ptr, align 8
  store ptr %0, ptr %2, align 8
  %3 = load ptr, ptr %2, align 8
  %4 = call noundef zeroext i1 @_ZN5clang4ento17NonParamVarRegion7classofEPKNS0_9MemRegionE(ptr noundef %3)
  ret i1 %4
}

; Function Attrs: mustprogress nounwind uwtable
define linkonce_odr hidden noundef zeroext i1 @_ZN4llvm11isa_impl_clIN5clang4ento17NonParamVarRegionEPKNS2_9MemRegionEE4doitES6_(ptr noundef %0) #0 comdat align 2 {
  %2 = alloca ptr, align 8
  store ptr %0, ptr %2, align 8
  %3 = load ptr, ptr %2, align 8
  %4 = call noundef zeroext i1 @_ZN4llvm8isa_implIN5clang4ento17NonParamVarRegionENS2_9MemRegionEvE4doitERKS4_(ptr noundef nonnull align 8 dereferenceable(48) %3)
  ret i1 %4
}

; Function Attrs: mustprogress nounwind uwtable
define linkonce_odr hidden noundef zeroext i1 @_ZN4llvm13isa_impl_wrapIN5clang4ento17NonParamVarRegionEPKNS2_9MemRegionES6_E4doitERKS6_(ptr noundef nonnull align 8 dereferenceable(8) %0) #0 comdat align 2 {
  %2 = alloca ptr, align 8
  store ptr %0, ptr %2, align 8
  %3 = load ptr, ptr %2, align 8
  %4 = load ptr, ptr %3, align 8
  %5 = call noundef zeroext i1 @_ZN4llvm11isa_impl_clIN5clang4ento17NonParamVarRegionEPKNS2_9MemRegionEE4doitES6_(ptr noundef %4)
  ret i1 %5
}

; Function Attrs: mustprogress nounwind uwtable
define linkonce_odr hidden noundef zeroext i1 @_ZN4llvm13isa_impl_wrapIN5clang4ento17NonParamVarRegionEKPKNS2_9MemRegionES6_E4doitERS7_(ptr noundef nonnull align 8 dereferenceable(8) %0) #0 comdat align 2 {
  %2 = alloca ptr, align 8
  %3 = alloca ptr, align 8
  store ptr %0, ptr %2, align 8
  %4 = load ptr, ptr %2, align 8
  %5 = call noundef ptr @_ZN4llvm13simplify_typeIKPKN5clang4ento9MemRegionEE18getSimplifiedValueERS6_(ptr noundef nonnull align 8 dereferenceable(8) %4)
  store ptr %5, ptr %3, align 8
  %6 = call noundef zeroext i1 @_ZN4llvm13isa_impl_wrapIN5clang4ento17NonParamVarRegionEPKNS2_9MemRegionES6_E4doitERKS6_(ptr noundef nonnull align 8 dereferenceable(8) %3)
  ret i1 %6
}

; Function Attrs: mustprogress nounwind uwtable
define linkonce_odr hidden noundef nonnull align 8 dereferenceable(8) ptr @_ZN4llvm13simplify_typeIPKN5clang4ento9MemRegionEE18getSimplifiedValueERS5_(ptr noundef nonnull align 8 dereferenceable(8) %0) #0 comdat align 2 {
  %2 = alloca ptr, align 8
  store ptr %0, ptr %2, align 8
  %3 = load ptr, ptr %2, align 8
  ret ptr %3
}

; Function Attrs: mustprogress nounwind uwtable
define linkonce_odr hidden noundef zeroext i1 @_ZN4llvm14CastIsPossibleIN5clang4ento17NonParamVarRegionEPKNS2_9MemRegionEvE10isPossibleERKS6_(ptr noundef nonnull align 8 dereferenceable(8) %0) #0 comdat align 2 {
  %2 = alloca ptr, align 8
  store ptr %0, ptr %2, align 8
  %3 = load ptr, ptr %2, align 8
  %4 = call noundef zeroext i1 @_ZN4llvm13isa_impl_wrapIN5clang4ento17NonParamVarRegionEKPKNS2_9MemRegionES6_E4doitERS7_(ptr noundef nonnull align 8 dereferenceable(8) %3)
  ret i1 %4
}

; Function Attrs: mustprogress nounwind uwtable
define linkonce_odr hidden noundef ptr @_ZN4llvm13simplify_typeIKPKN5clang4ento9MemRegionEE18getSimplifiedValueERS6_(ptr noundef nonnull align 8 dereferenceable(8) %0) #0 comdat align 2 {
  %2 = alloca ptr, align 8
  store ptr %0, ptr %2, align 8
  %3 = load ptr, ptr %2, align 8
  %4 = call noundef nonnull align 8 dereferenceable(8) ptr @_ZN4llvm13simplify_typeIPKN5clang4ento9MemRegionEE18getSimplifiedValueERS5_(ptr noundef nonnull align 8 dereferenceable(8) %3)
  %5 = load ptr, ptr %4, align 8
  ret ptr %5
}

; Function Attrs: mustprogress nounwind uwtable
define linkonce_odr hidden noundef zeroext i1 @_ZN4llvm8CastInfoIN5clang4ento17NonParamVarRegionEKPKNS2_9MemRegionEvE10isPossibleERS7_(ptr noundef nonnull align 8 dereferenceable(8) %0) #0 comdat align 2 {
  %2 = alloca ptr, align 8
  %3 = alloca ptr, align 8
  store ptr %0, ptr %2, align 8
  %4 = load ptr, ptr %2, align 8
  %5 = call noundef ptr @_ZN4llvm13simplify_typeIKPKN5clang4ento9MemRegionEE18getSimplifiedValueERS6_(ptr noundef nonnull align 8 dereferenceable(8) %4)
  store ptr %5, ptr %3, align 8
  %6 = call noundef zeroext i1 @_ZN4llvm14CastIsPossibleIN5clang4ento17NonParamVarRegionEPKNS2_9MemRegionEvE10isPossibleERKS6_(ptr noundef nonnull align 8 dereferenceable(8) %3)
  ret i1 %6
}

; Function Attrs: mustprogress nounwind uwtable
define linkonce_odr hidden noundef zeroext i1 @_ZN4llvm3isaIN5clang4ento17NonParamVarRegionEPKNS2_9MemRegionEEEbRKT0_(ptr noundef nonnull align 8 dereferenceable(8) %0) #0 comdat {
  %2 = alloca ptr, align 8
  store ptr %0, ptr %2, align 8
  %3 = load ptr, ptr %2, align 8
  %4 = call noundef zeroext i1 @_ZN4llvm8CastInfoIN5clang4ento17NonParamVarRegionEKPKNS2_9MemRegionEvE10isPossibleERS7_(ptr noundef nonnull align 8 dereferenceable(8) %3)
  ret i1 %4
}

; Function Attrs: mustprogress nounwind uwtable
define internal noundef zeroext i1 @_ZN12_GLOBAL__N_120VarBindingsCollector13HandleBindingERN5clang4ento12StoreManagerEPKvPKNS2_9MemRegionENS2_4SValE(ptr noundef nonnull align 8 dereferenceable(24) %0, ptr noundef nonnull align 8 dereferenceable(40) %1, ptr noundef %2, ptr noundef %3, ptr %4, i8 %5) unnamed_addr #0 align 2 {
  %7 = alloca i1, align 1
  %8 = alloca %"class.clang::ento::SVal", align 8
  %9 = alloca ptr, align 8
  %10 = alloca ptr, align 8
  %11 = alloca ptr, align 8
  %12 = alloca ptr, align 8
  %13 = alloca ptr, align 8
  %14 = getelementptr inbounds nuw { ptr, i8 }, ptr %8, i32 0, i32 0
  store ptr %4, ptr %14, align 8
  %15 = getelementptr inbounds nuw { ptr, i8 }, ptr %8, i32 0, i32 1
  store i8 %5, ptr %15, align 8
  store ptr %0, ptr %9, align 8
  store ptr %1, ptr %10, align 8
  store ptr %2, ptr %11, align 8
  store ptr %3, ptr %12, align 8
  %16 = load ptr, ptr %9, align 8
  %17 = call noundef ptr @_ZNK5clang4ento4SVal14getAsLocSymbolEb(ptr noundef nonnull align 8 dereferenceable(9) %8, i1 noundef zeroext false)
  store ptr %17, ptr %13, align 8
  %18 = load ptr, ptr %13, align 8
  %19 = icmp ne ptr %18, null
  br i1 %19, label %20, label %25

20:                                               ; preds = %6
  %21 = load ptr, ptr %13, align 8
  %22 = getelementptr inbounds nuw %"class.(anonymous namespace)::VarBindingsCollector", ptr %16, i32 0, i32 1
  %23 = load ptr, ptr %22, align 8
  %24 = icmp ne ptr %21, %23
  br i1 %24, label %25, label %26

25:                                               ; preds = %20, %6
  store i1 true, ptr %7, align 1
  br label %33

26:                                               ; preds = %20
  %27 = call noundef zeroext i1 @_ZN4llvm3isaIN5clang4ento17NonParamVarRegionEPKNS2_9MemRegionEEEbRKT0_(ptr noundef nonnull align 8 dereferenceable(8) %12)
  br i1 %27, label %28, label %32

28:                                               ; preds = %26
  %29 = getelementptr inbounds nuw %"class.(anonymous namespace)::VarBindingsCollector", ptr %16, i32 0, i32 2
  %30 = load ptr, ptr %29, align 8
  %31 = call noundef nonnull align 8 dereferenceable(24) ptr @_ZN4llvm15SmallVectorImplISt4pairIPKN5clang4ento9MemRegionENS3_4SValEEE12emplace_backIJRS6_RS7_EEERS8_DpOT_(ptr noundef nonnull align 8 dereferenceable(16) %30, ptr noundef nonnull align 8 dereferenceable(8) %12, ptr noundef nonnull align 8 dereferenceable(9) %8)
  br label %32

32:                                               ; preds = %28, %26
  store i1 true, ptr %7, align 1
  br label %33

33:                                               ; preds = %32, %25
  %34 = load i1, ptr %7, align 1
  ret i1 %34
}