; Function Attrs: mustprogress nounwind uwtable
define internal noundef zeroext i1 @_ZN12_GLOBAL__N_120VarBindingsCollector13HandleBindingERN5clang4ento12StoreManagerEPKvPKNS2_9MemRegionENS2_4SValE(ptr noundef nonnull readonly align 8 captures(none) dereferenceable(24) %0, ptr nonnull readnone align 8 captures(none) %1, ptr readnone captures(none) %2, ptr noundef %3, ptr %4, i8 %5) unnamed_addr #2 align 2 {
  %7 = alloca %"class.clang::ento::SVal", align 8
  %8 = alloca ptr, align 8
  store ptr %4, ptr %7, align 8
  %9 = getelementptr inbounds nuw i8, ptr %7, i64 8
  store i8 %5, ptr %9, align 8
  store ptr %3, ptr %8, align 8
  %10 = call noundef ptr @_ZNK5clang4ento4SVal14getAsLocSymbolEb(ptr noundef nonnull align 8 dereferenceable(9) %7, i1 noundef zeroext false) #18
  %.not = icmp ne ptr %10, null
  %11 = getelementptr inbounds nuw i8, ptr %0, i64 8
  %12 = load ptr, ptr %11, align 8
  %.not4 = icmp eq ptr %10, %12
  %or.cond = select i1 %.not, i1 %.not4, i1 false
  br i1 %or.cond, label %13, label %21

13:                                               ; preds = %6
  %14 = getelementptr inbounds nuw i8, ptr %3, i64 16
  %15 = load i32, ptr %14, align 8
  %16 = icmp eq i32 %15, 22
  br i1 %16, label %17, label %21

17:                                               ; preds = %13
  %18 = getelementptr inbounds nuw i8, ptr %0, i64 16
  %19 = load ptr, ptr %18, align 8
  %20 = call noundef nonnull align 8 dereferenceable(24) ptr @_ZN4llvm15SmallVectorImplISt4pairIPKN5clang4ento9MemRegionENS3_4SValEEE12emplace_backIJRS6_RS7_EEERS8_DpOT_(ptr noundef nonnull align 8 dereferenceable(16) %19, ptr noundef nonnull align 8 dereferenceable(8) %8, ptr noundef nonnull align 8 dereferenceable(9) %7)
  br label %21

21:                                               ; preds = %13, %17, %6
  ret i1 true
}